target datalayout = "e-m:e-p270:32:32-p271:32:32-p272:64:64-i64:64-i128:128-f80:128-n8:16:32:64-S128"
target triple = "x86_64-unknown-linux-gnu"

%"class.dpx::Writer" = type { ptr, %"struct.dpx::Header", i64, ptr }
%"struct.dpx::Header" = type <{ %"struct.dpx::GenericHeader", %"struct.dpx::IndustryHeader", i8, [3 x i8] }>
%"struct.dpx::GenericHeader" = type { i32, i32, [8 x i8], i32, i32, i32, i32, i32, [100 x i8], [24 x i8], [100 x i8], [200 x i8], [200 x i8], i32, [104 x i8], i16, i16, i32, i32, [8 x %"struct.dpx::ImageElement"], [52 x i8], i32, i32, float, float, i32, i32, [100 x i8], [24 x i8], [32 x i8], [32 x i8], [4 x i16], [2 x i32], float, float, [20 x i8] }
%"struct.dpx::ImageElement" = type { i32, i32, float, i32, float, i8, i8, i8, i8, i16, i16, i32, i32, i32, [32 x i8] }
%"struct.dpx::IndustryHeader" = type { [2 x i8], [2 x i8], [2 x i8], [6 x i8], [4 x i8], [32 x i8], i32, i32, i32, float, float, [32 x i8], [100 x i8], [56 x i8], i32, i32, i8, i8, i8, i8, float, float, float, float, float, float, float, float, float, float, [76 x i8] }

; Function Attrs: mustprogress nounwind uwtable
define linkonce_odr hidden noundef i32 @_ZNK3dpx13GenericHeader15ImageDescriptorEi(ptr noundef nonnull align 4 dereferenceable(1664) %this, i32 noundef %i) #1 comdat align 2 {
entry:
  %retval = alloca i32, align 4
  %this.addr = alloca ptr, align 8
  %i.addr = alloca i32, align 4
  store ptr %this, ptr %this.addr, align 8
  store i32 %i, ptr %i.addr, align 4
  %this1 = load ptr, ptr %this.addr, align 8
  %0 = load i32, ptr %i.addr, align 4
  %cmp = icmp slt i32 %0, 0
  br i1 %cmp, label %if.then, label %lor.lhs.false

lor.lhs.false:                                    ; preds = %entry
  %1 = load i32, ptr %i.addr, align 4
  %cmp2 = icmp sge i32 %1, 8
  br i1 %cmp2, label %if.then, label %if.end

if.then:                                          ; preds = %lor.lhs.false, %entry
  store i32 255, ptr %retval, align 4
  br label %return

if.end:                                           ; preds = %lor.lhs.false
  %chan = getelementptr inbounds %"struct.dpx::GenericHeader", ptr %this1, i32 0, i32 19
  %2 = load i32, ptr %i.addr, align 4
  %idxprom = sext i32 %2 to i64
  %arrayidx = getelementptr inbounds [8 x %"struct.dpx::ImageElement"], ptr %chan, i64 0, i64 %idxprom
  %descriptor = getelementptr inbounds %"struct.dpx::ImageElement", ptr %arrayidx, i32 0, i32 5
  %3 = load i8, ptr %descriptor, align 4
  %conv = zext i8 %3 to i32
  store i32 %conv, ptr %retval, align 4
  br label %return

return:                                           ; preds = %if.end, %if.then
  %4 = load i32, ptr %retval, align 4
  ret i32 %4
}

; Function Attrs: mustprogress uwtable
define hidden noundef i32 @_ZNK3dpx6Writer16NextAvailElementEv(ptr noundef nonnull align 8 dereferenceable(2080) %this) #6 align 2 {
entry:
  %this.addr = alloca ptr, align 8
  %i = alloca i32, align 4
  store ptr %this, ptr %this.addr, align 8
  %this1 = load ptr, ptr %this.addr, align 8
  store i32 0, ptr %i, align 4
  br label %for.cond

for.cond:                                         ; preds = %for.inc, %entry
  %0 = load i32, ptr %i, align 4
  %cmp = icmp ult i32 %0, 8
  br i1 %cmp, label %for.body, label %for.end

for.body:                                         ; preds = %for.cond
  %header = getelementptr inbounds %"class.dpx::Writer", ptr %this1, i32 0, i32 1
  %1 = load i32, ptr %i, align 4
  %call = call noundef i32 @_ZNK3dpx13GenericHeader15ImageDescriptorEi(ptr noundef nonnull align 4 dereferenceable(1664) %header, i32 noundef %1)
  %cmp2 = icmp eq i32 %call, 255
  br i1 %cmp2, label %if.then, label %if.end

if.then:                                          ; preds = %for.body
  br label %for.end

if.end:                                           ; preds = %for.body
  br label %for.inc

for.inc:                                          ; preds = %if.end
  %2 = load i32, ptr %i, align 4
  %inc = add i32 %2, 1
  store i32 %inc, ptr %i, align 4
  br label %for.cond, !llvm.loop !6

for.end:                                          ; preds = %if.then, %for.cond
  %3 = load i32, ptr %i, align 4
  ret i32 %3
}