; Function Attrs: mustprogress nofree norecurse nosync nounwind willreturn memory(argmem: read) uwtable
define hidden noundef i32 @_ZNK3dpx6Writer16NextAvailElementEv(ptr nocapture noundef nonnull readonly align 8 dereferenceable(2080) %this) local_unnamed_addr #9 align 2 {
entry:
  %chan.i = getelementptr inbounds i8, ptr %this, i64 788
  br label %_ZNK3dpx13GenericHeader15ImageDescriptorEi.exit

_ZNK3dpx13GenericHeader15ImageDescriptorEi.exit:  ; preds = %entry, %for.inc
  %indvars.iv = phi i64 [ 0, %entry ], [ %indvars.iv.next, %for.inc ]
  %descriptor.i = getelementptr inbounds [8 x %"struct.dpx::ImageElement"], ptr %chan.i, i64 0, i64 %indvars.iv, i32 5
  %0 = load i8, ptr %descriptor.i, align 8
  %cmp2 = icmp eq i8 %0, -1
  br i1 %cmp2, label %for.end.split.loop.exit, label %for.inc

for.inc:                                          ; preds = %_ZNK3dpx13GenericHeader15ImageDescriptorEi.exit
  %indvars.iv.next = add nuw nsw i64 %indvars.iv, 1
  %exitcond.not = icmp eq i64 %indvars.iv.next, 8
  br i1 %exitcond.not, label %for.end, label %_ZNK3dpx13GenericHeader15ImageDescriptorEi.exit, !llvm.loop !8

for.end.split.loop.exit:                          ; preds = %_ZNK3dpx13GenericHeader15ImageDescriptorEi.exit
  %1 = trunc i64 %indvars.iv to i32
  br label %for.end

for.end:                                          ; preds = %for.inc, %for.end.split.loop.exit
  %i.0.lcssa = phi i32 [ %1, %for.end.split.loop.exit ], [ 8, %for.inc ]
  ret i32 %i.0.lcssa
}